
tiny_prog.elf:     file format elf32-avr

Sections:
Idx Name          Size      VMA       LMA       File off  Algn
  0 .data         00000030  00800100  000009c0  00000a54  2**0
                  CONTENTS, ALLOC, LOAD, DATA
  1 .text         000009c0  00000000  00000000  00000094  2**1
                  CONTENTS, ALLOC, LOAD, READONLY, CODE
  2 .bss          0000007d  00800130  00800130  00000a84  2**0
                  ALLOC
  3 .comment      00000011  00000000  00000000  00000a84  2**0
                  CONTENTS, READONLY
  4 .note.gnu.avr.deviceinfo 00000040  00000000  00000000  00000a98  2**2
                  CONTENTS, READONLY
  5 .debug_aranges 00000080  00000000  00000000  00000ad8  2**3
                  CONTENTS, READONLY, DEBUGGING
  6 .debug_info   0000068c  00000000  00000000  00000b58  2**0
                  CONTENTS, READONLY, DEBUGGING
  7 .debug_abbrev 000005f2  00000000  00000000  000011e4  2**0
                  CONTENTS, READONLY, DEBUGGING
  8 .debug_line   000002bb  00000000  00000000  000017d6  2**0
                  CONTENTS, READONLY, DEBUGGING
  9 .debug_str    00000266  00000000  00000000  00001a91  2**0
                  CONTENTS, READONLY, DEBUGGING

Disassembly of section .text:

00000000 <__vectors>:
   0:	0c 94 98 00 	jmp	0x130	; 0x130 <__ctors_end>
   4:	0c 94 b5 00 	jmp	0x16a	; 0x16a <__bad_interrupt>
   8:	0c 94 b5 00 	jmp	0x16a	; 0x16a <__bad_interrupt>
   c:	0c 94 b5 00 	jmp	0x16a	; 0x16a <__bad_interrupt>
  10:	0c 94 b5 00 	jmp	0x16a	; 0x16a <__bad_interrupt>
  14:	0c 94 b5 00 	jmp	0x16a	; 0x16a <__bad_interrupt>
  18:	0c 94 b5 00 	jmp	0x16a	; 0x16a <__bad_interrupt>
  1c:	0c 94 b5 00 	jmp	0x16a	; 0x16a <__bad_interrupt>
  20:	0c 94 b5 00 	jmp	0x16a	; 0x16a <__bad_interrupt>
  24:	0c 94 b5 00 	jmp	0x16a	; 0x16a <__bad_interrupt>
  28:	0c 94 b5 00 	jmp	0x16a	; 0x16a <__bad_interrupt>
  2c:	0c 94 b5 00 	jmp	0x16a	; 0x16a <__bad_interrupt>
  30:	0c 94 b5 00 	jmp	0x16a	; 0x16a <__bad_interrupt>
  34:	0c 94 b5 00 	jmp	0x16a	; 0x16a <__bad_interrupt>
  38:	0c 94 a1 03 	jmp	0x742	; 0x742 <__vector_14>
  3c:	0c 94 b5 00 	jmp	0x16a	; 0x16a <__bad_interrupt>
  40:	0c 94 b5 00 	jmp	0x16a	; 0x16a <__bad_interrupt>
  44:	0c 94 b5 00 	jmp	0x16a	; 0x16a <__bad_interrupt>
  48:	0c 94 5c 04 	jmp	0x8b8	; 0x8b8 <__vector_18>
  4c:	0c 94 b5 00 	jmp	0x16a	; 0x16a <__bad_interrupt>
  50:	0c 94 b5 00 	jmp	0x16a	; 0x16a <__bad_interrupt>
  54:	0c 94 b5 00 	jmp	0x16a	; 0x16a <__bad_interrupt>
  58:	0c 94 b5 00 	jmp	0x16a	; 0x16a <__bad_interrupt>
  5c:	0c 94 b5 00 	jmp	0x16a	; 0x16a <__bad_interrupt>
  60:	0c 94 b5 00 	jmp	0x16a	; 0x16a <__bad_interrupt>
  64:	0c 94 b5 00 	jmp	0x16a	; 0x16a <__bad_interrupt>

00000068 <__trampolines_end>:
  68:	50 6f       	ori	r21, 0xF0	; 240
  6a:	77 65       	ori	r23, 0x57	; 87
  6c:	72 20       	and	r7, r2
  6e:	4f 46       	sbci	r20, 0x6F	; 111
  70:	46 0d       	add	r20, r6
  72:	0a 5e       	subi	r16, 0xEA	; 234
	...

00000075 <_ZZ5PowervE3__c_0>:
  75:	53 75 70 70 6f 72 74 65 64 20 63 6f 6d 6d 61 6e     Supported comman
  85:	64 73 3a 20 66 2c 71 2c 65 2c 72 2c 64 0d 0a 00     ds: f,q,e,r,d...

00000095 <_ZZ5PowervE3__c>:
  95:	53 65 6e 64 20 73 20 74 6f 20 73 74 61 72 74 0d     Send s to start.
  a5:	0a 00                                               ..

000000a7 <_ZZ4FusevE3__c_2>:
  a7:	45 46 55 53 45 3d 00                                EFUSE=.

000000ae <_ZZ4FusevE3__c_1>:
  ae:	48 46 55 53 45 3d 00                                HFUSE=.

000000b5 <_ZZ4FusevE3__c_0>:
  b5:	4c 46 55 53 45 3d 00                                LFUSE=.

000000bc <_ZZ4FusevE3__c>:
  bc:	53 65 6c 65 63 74 20 46 75 73 65 3a 20 6c 2c 68     Select Fuse: l,h
  cc:	2c 65 3a 0d 0a 00                                   ,e:...

000000d2 <_ZZ5WritevE3__c_0>:
  d2:	44 6f 6e 65 2e 0d 0a 00                             Done....

000000da <_ZZ5WritevE3__c>:
  da:	53 74 61 72 74 20 70 72 6f 67 72 61 6d 6d 69 6e     Start programmin
  ea:	67 2e 2e 2e 0d 0a 00                                g......

000000f1 <_ZZ5ErasevE3__c>:
  f1:	50 72 6f 67 72 61 6d 20 4d 65 6d 6f 72 79 20 69     Program Memory i
 101:	73 20 65 72 61 73 65 64 21 21 21 0d 0a 00           s erased!!!...

0000010f <_ZZ16PrintCalibrationvE3__c>:
 10f:	43 61 6c 69 62 72 61 74 69 6f 6e 20 69 73 3a 20     Calibration is: 
	...

00000120 <_ZZ14PrintSignaturevE3__c>:
 120:	53 69 67 6e 61 74 75 72 65 20 69 73 3a 20 00 00     Signature is: ..

00000130 <__ctors_end>:
 130:	11 24       	eor	r1, r1
 132:	1f be       	out	0x3f, r1	; 63
 134:	cf ef       	ldi	r28, 0xFF	; 255
 136:	d8 e0       	ldi	r29, 0x08	; 8
 138:	de bf       	out	0x3e, r29	; 62
 13a:	cd bf       	out	0x3d, r28	; 61

0000013c <__do_copy_data>:
 13c:	11 e0       	ldi	r17, 0x01	; 1
 13e:	a0 e0       	ldi	r26, 0x00	; 0
 140:	b1 e0       	ldi	r27, 0x01	; 1
 142:	e0 ec       	ldi	r30, 0xC0	; 192
 144:	f9 e0       	ldi	r31, 0x09	; 9
 146:	02 c0       	rjmp	.+4      	; 0x14c <__do_copy_data+0x10>
 148:	05 90       	lpm	r0, Z+
 14a:	0d 92       	st	X+, r0
 14c:	a0 33       	cpi	r26, 0x30	; 48
 14e:	b1 07       	cpc	r27, r17
 150:	d9 f7       	brne	.-10     	; 0x148 <__do_copy_data+0xc>

00000152 <__do_clear_bss>:
 152:	21 e0       	ldi	r18, 0x01	; 1
 154:	a0 e3       	ldi	r26, 0x30	; 48
 156:	b1 e0       	ldi	r27, 0x01	; 1
 158:	01 c0       	rjmp	.+2      	; 0x15c <.do_clear_bss_start>

0000015a <.do_clear_bss_loop>:
 15a:	1d 92       	st	X+, r1

0000015c <.do_clear_bss_start>:
 15c:	ad 3a       	cpi	r26, 0xAD	; 173
 15e:	b2 07       	cpc	r27, r18
 160:	e1 f7       	brne	.-8      	; 0x15a <.do_clear_bss_loop>
 162:	0e 94 75 04 	call	0x8ea	; 0x8ea <main>
 166:	0c 94 de 04 	jmp	0x9bc	; 0x9bc <_exit>

0000016a <__bad_interrupt>:
 16a:	0c 94 00 00 	jmp	0	; 0x0 <__vectors>

0000016e <_Z8HexPrinth>:
 16e:	1f 93       	push	r17
 170:	cf 93       	push	r28
 172:	df 93       	push	r29
 174:	cd b7       	in	r28, 0x3d	; 61
 176:	de b7       	in	r29, 0x3e	; 62
 178:	61 97       	sbiw	r28, 0x11	; 17
 17a:	0f b6       	in	r0, 0x3f	; 63
 17c:	f8 94       	cli
 17e:	de bf       	out	0x3e, r29	; 62
 180:	0f be       	out	0x3f, r0	; 63
 182:	cd bf       	out	0x3d, r28	; 61
 184:	18 2f       	mov	r17, r24
 186:	81 e1       	ldi	r24, 0x11	; 17
 188:	e0 e0       	ldi	r30, 0x00	; 0
 18a:	f1 e0       	ldi	r31, 0x01	; 1
 18c:	de 01       	movw	r26, r28
 18e:	11 96       	adiw	r26, 0x01	; 1
 190:	01 90       	ld	r0, Z+
 192:	0d 92       	st	X+, r0
 194:	8a 95       	dec	r24
 196:	e1 f7       	brne	.-8      	; 0x190 <_Z8HexPrinth+0x22>
 198:	e1 2f       	mov	r30, r17
 19a:	f0 e0       	ldi	r31, 0x00	; 0
 19c:	84 e0       	ldi	r24, 0x04	; 4
 19e:	f5 95       	asr	r31
 1a0:	e7 95       	ror	r30
 1a2:	8a 95       	dec	r24
 1a4:	e1 f7       	brne	.-8      	; 0x19e <_Z8HexPrinth+0x30>
 1a6:	81 e0       	ldi	r24, 0x01	; 1
 1a8:	90 e0       	ldi	r25, 0x00	; 0
 1aa:	8c 0f       	add	r24, r28
 1ac:	9d 1f       	adc	r25, r29
 1ae:	e8 0f       	add	r30, r24
 1b0:	f9 1f       	adc	r31, r25
 1b2:	80 81       	ld	r24, Z
 1b4:	0e 94 0a 04 	call	0x814	; 0x814 <_Z10UsartWritec>
 1b8:	e1 2f       	mov	r30, r17
 1ba:	ef 70       	andi	r30, 0x0F	; 15
 1bc:	81 e0       	ldi	r24, 0x01	; 1
 1be:	90 e0       	ldi	r25, 0x00	; 0
 1c0:	8c 0f       	add	r24, r28
 1c2:	9d 1f       	adc	r25, r29
 1c4:	8e 0f       	add	r24, r30
 1c6:	91 1d       	adc	r25, r1
 1c8:	fc 01       	movw	r30, r24
 1ca:	80 81       	ld	r24, Z
 1cc:	61 96       	adiw	r28, 0x11	; 17
 1ce:	0f b6       	in	r0, 0x3f	; 63
 1d0:	f8 94       	cli
 1d2:	de bf       	out	0x3e, r29	; 62
 1d4:	0f be       	out	0x3f, r0	; 63
 1d6:	cd bf       	out	0x3d, r28	; 61
 1d8:	df 91       	pop	r29
 1da:	cf 91       	pop	r28
 1dc:	1f 91       	pop	r17
 1de:	0c 94 0a 04 	jmp	0x814	; 0x814 <_Z10UsartWritec>

000001e2 <_Z12HexPrintWordj>:
 1e2:	cf 93       	push	r28
 1e4:	c8 2f       	mov	r28, r24
 1e6:	89 2f       	mov	r24, r25
 1e8:	0e 94 b7 00 	call	0x16e	; 0x16e <_Z8HexPrinth>
 1ec:	8c 2f       	mov	r24, r28
 1ee:	cf 91       	pop	r28
 1f0:	0c 94 b7 00 	jmp	0x16e	; 0x16e <_Z8HexPrinth>

000001f4 <_Z8shiftOuthh>:
 1f4:	cf 93       	push	r28
 1f6:	df 93       	push	r29
 1f8:	48 2f       	mov	r20, r24
 1fa:	50 e0       	ldi	r21, 0x00	; 0
 1fc:	70 e0       	ldi	r23, 0x00	; 0
 1fe:	32 9b       	sbis	0x06, 2	; 6
 200:	fe cf       	rjmp	.-4      	; 0x1fe <_Z8shiftOuthh+0xa>
 202:	eb e0       	ldi	r30, 0x0B	; 11
 204:	f0 e0       	ldi	r31, 0x00	; 0
 206:	90 e0       	ldi	r25, 0x00	; 0
 208:	80 e0       	ldi	r24, 0x00	; 0
 20a:	cc e0       	ldi	r28, 0x0C	; 12
 20c:	d0 e0       	ldi	r29, 0x00	; 0
 20e:	44 0f       	add	r20, r20
 210:	55 1f       	adc	r21, r21
 212:	66 0f       	add	r22, r22
 214:	77 1f       	adc	r23, r23
 216:	51 fb       	bst	r21, 1
 218:	22 27       	eor	r18, r18
 21a:	20 f9       	bld	r18, 0
 21c:	71 fd       	sbrc	r23, 1
 21e:	22 60       	ori	r18, 0x02	; 2
 220:	28 b9       	out	0x08, r18	; 8
 222:	88 0f       	add	r24, r24
 224:	99 1f       	adc	r25, r25
 226:	36 b1       	in	r19, 0x06	; 6
 228:	34 70       	andi	r19, 0x04	; 4
 22a:	83 2b       	or	r24, r19
 22c:	32 2f       	mov	r19, r18
 22e:	38 60       	ori	r19, 0x08	; 8
 230:	38 b9       	out	0x08, r19	; 8
 232:	de 01       	movw	r26, r28
 234:	11 97       	sbiw	r26, 0x01	; 1
 236:	f1 f7       	brne	.-4      	; 0x234 <_Z8shiftOuthh+0x40>
 238:	28 b9       	out	0x08, r18	; 8
 23a:	31 97       	sbiw	r30, 0x01	; 1
 23c:	41 f7       	brne	.-48     	; 0x20e <_Z8shiftOuthh+0x1a>
 23e:	24 e0       	ldi	r18, 0x04	; 4
 240:	96 95       	lsr	r25
 242:	87 95       	ror	r24
 244:	2a 95       	dec	r18
 246:	e1 f7       	brne	.-8      	; 0x240 <_Z8shiftOuthh+0x4c>
 248:	df 91       	pop	r29
 24a:	cf 91       	pop	r28
 24c:	08 95       	ret

0000024e <_Z9writeFusejh>:
 24e:	1f 93       	push	r17
 250:	cf 93       	push	r28
 252:	df 93       	push	r29
 254:	ec 01       	movw	r28, r24
 256:	16 2f       	mov	r17, r22
 258:	6c e4       	ldi	r22, 0x4C	; 76
 25a:	80 e4       	ldi	r24, 0x40	; 64
 25c:	0e 94 fa 00 	call	0x1f4	; 0x1f4 <_Z8shiftOuthh>
 260:	6c e2       	ldi	r22, 0x2C	; 44
 262:	81 2f       	mov	r24, r17
 264:	0e 94 fa 00 	call	0x1f4	; 0x1f4 <_Z8shiftOuthh>
 268:	6d 2f       	mov	r22, r29
 26a:	80 e0       	ldi	r24, 0x00	; 0
 26c:	0e 94 fa 00 	call	0x1f4	; 0x1f4 <_Z8shiftOuthh>
 270:	6c 2f       	mov	r22, r28
 272:	80 e0       	ldi	r24, 0x00	; 0
 274:	df 91       	pop	r29
 276:	cf 91       	pop	r28
 278:	1f 91       	pop	r17
 27a:	0c 94 fa 00 	jmp	0x1f4	; 0x1f4 <_Z8shiftOuthh>

0000027e <_Z10PrintFusesv>:
 27e:	cf 93       	push	r28
 280:	6c e4       	ldi	r22, 0x4C	; 76
 282:	84 e0       	ldi	r24, 0x04	; 4
 284:	0e 94 fa 00 	call	0x1f4	; 0x1f4 <_Z8shiftOuthh>
 288:	68 e6       	ldi	r22, 0x68	; 104
 28a:	80 e0       	ldi	r24, 0x00	; 0
 28c:	0e 94 fa 00 	call	0x1f4	; 0x1f4 <_Z8shiftOuthh>
 290:	6c e6       	ldi	r22, 0x6C	; 108
 292:	80 e0       	ldi	r24, 0x00	; 0
 294:	0e 94 fa 00 	call	0x1f4	; 0x1f4 <_Z8shiftOuthh>
 298:	c8 2f       	mov	r28, r24
 29a:	81 e1       	ldi	r24, 0x11	; 17
 29c:	91 e0       	ldi	r25, 0x01	; 1
 29e:	0e 94 11 04 	call	0x822	; 0x822 <_Z10UsartPrintPKc>
 2a2:	8c 2f       	mov	r24, r28
 2a4:	0e 94 b7 00 	call	0x16e	; 0x16e <_Z8HexPrinth>
 2a8:	6c e4       	ldi	r22, 0x4C	; 76
 2aa:	84 e0       	ldi	r24, 0x04	; 4
 2ac:	0e 94 fa 00 	call	0x1f4	; 0x1f4 <_Z8shiftOuthh>
 2b0:	6a e7       	ldi	r22, 0x7A	; 122
 2b2:	80 e0       	ldi	r24, 0x00	; 0
 2b4:	0e 94 fa 00 	call	0x1f4	; 0x1f4 <_Z8shiftOuthh>
 2b8:	6e e7       	ldi	r22, 0x7E	; 126
 2ba:	80 e0       	ldi	r24, 0x00	; 0
 2bc:	0e 94 fa 00 	call	0x1f4	; 0x1f4 <_Z8shiftOuthh>
 2c0:	c8 2f       	mov	r28, r24
 2c2:	89 e1       	ldi	r24, 0x19	; 25
 2c4:	91 e0       	ldi	r25, 0x01	; 1
 2c6:	0e 94 11 04 	call	0x822	; 0x822 <_Z10UsartPrintPKc>
 2ca:	8c 2f       	mov	r24, r28
 2cc:	0e 94 b7 00 	call	0x16e	; 0x16e <_Z8HexPrinth>
 2d0:	6c e4       	ldi	r22, 0x4C	; 76
 2d2:	84 e0       	ldi	r24, 0x04	; 4
 2d4:	0e 94 fa 00 	call	0x1f4	; 0x1f4 <_Z8shiftOuthh>
 2d8:	6a e6       	ldi	r22, 0x6A	; 106
 2da:	80 e0       	ldi	r24, 0x00	; 0
 2dc:	0e 94 fa 00 	call	0x1f4	; 0x1f4 <_Z8shiftOuthh>
 2e0:	6e e6       	ldi	r22, 0x6E	; 110
 2e2:	80 e0       	ldi	r24, 0x00	; 0
 2e4:	0e 94 fa 00 	call	0x1f4	; 0x1f4 <_Z8shiftOuthh>
 2e8:	c8 2f       	mov	r28, r24
 2ea:	83 e2       	ldi	r24, 0x23	; 35
 2ec:	91 e0       	ldi	r25, 0x01	; 1
 2ee:	0e 94 11 04 	call	0x822	; 0x822 <_Z10UsartPrintPKc>
 2f2:	8c 2f       	mov	r24, r28
 2f4:	0e 94 b7 00 	call	0x16e	; 0x16e <_Z8HexPrinth>
 2f8:	8d e2       	ldi	r24, 0x2D	; 45
 2fa:	91 e0       	ldi	r25, 0x01	; 1
 2fc:	cf 91       	pop	r28
 2fe:	0c 94 11 04 	jmp	0x822	; 0x822 <_Z10UsartPrintPKc>

00000302 <_Z14PrintSignaturev>:
 302:	cf 93       	push	r28
 304:	df 93       	push	r29
 306:	6c e4       	ldi	r22, 0x4C	; 76
 308:	88 e0       	ldi	r24, 0x08	; 8
 30a:	0e 94 fa 00 	call	0x1f4	; 0x1f4 <_Z8shiftOuthh>
 30e:	6c e0       	ldi	r22, 0x0C	; 12
 310:	81 e0       	ldi	r24, 0x01	; 1
 312:	0e 94 fa 00 	call	0x1f4	; 0x1f4 <_Z8shiftOuthh>
 316:	68 e6       	ldi	r22, 0x68	; 104
 318:	80 e0       	ldi	r24, 0x00	; 0
 31a:	0e 94 fa 00 	call	0x1f4	; 0x1f4 <_Z8shiftOuthh>
 31e:	6c e6       	ldi	r22, 0x6C	; 108
 320:	80 e0       	ldi	r24, 0x00	; 0
 322:	0e 94 fa 00 	call	0x1f4	; 0x1f4 <_Z8shiftOuthh>
 326:	d8 2f       	mov	r29, r24
 328:	6c e4       	ldi	r22, 0x4C	; 76
 32a:	88 e0       	ldi	r24, 0x08	; 8
 32c:	0e 94 fa 00 	call	0x1f4	; 0x1f4 <_Z8shiftOuthh>
 330:	6c e0       	ldi	r22, 0x0C	; 12
 332:	82 e0       	ldi	r24, 0x02	; 2
 334:	0e 94 fa 00 	call	0x1f4	; 0x1f4 <_Z8shiftOuthh>
 338:	68 e6       	ldi	r22, 0x68	; 104
 33a:	80 e0       	ldi	r24, 0x00	; 0
 33c:	0e 94 fa 00 	call	0x1f4	; 0x1f4 <_Z8shiftOuthh>
 340:	6c e6       	ldi	r22, 0x6C	; 108
 342:	80 e0       	ldi	r24, 0x00	; 0
 344:	0e 94 fa 00 	call	0x1f4	; 0x1f4 <_Z8shiftOuthh>
 348:	c8 2f       	mov	r28, r24
 34a:	80 e2       	ldi	r24, 0x20	; 32
 34c:	91 e0       	ldi	r25, 0x01	; 1
 34e:	0e 94 32 04 	call	0x864	; 0x864 <_Z13UsartPrintPGMPKc>
 352:	8d 2f       	mov	r24, r29
 354:	0e 94 b7 00 	call	0x16e	; 0x16e <_Z8HexPrinth>
 358:	8c 2f       	mov	r24, r28
 35a:	0e 94 b7 00 	call	0x16e	; 0x16e <_Z8HexPrinth>
 35e:	8d e2       	ldi	r24, 0x2D	; 45
 360:	91 e0       	ldi	r25, 0x01	; 1
 362:	df 91       	pop	r29
 364:	cf 91       	pop	r28
 366:	0c 94 11 04 	jmp	0x822	; 0x822 <_Z10UsartPrintPKc>

0000036a <_Z16PrintCalibrationv>:
 36a:	cf 93       	push	r28
 36c:	6c e4       	ldi	r22, 0x4C	; 76
 36e:	88 e0       	ldi	r24, 0x08	; 8
 370:	0e 94 fa 00 	call	0x1f4	; 0x1f4 <_Z8shiftOuthh>
 374:	6c e0       	ldi	r22, 0x0C	; 12
 376:	81 e0       	ldi	r24, 0x01	; 1
 378:	0e 94 fa 00 	call	0x1f4	; 0x1f4 <_Z8shiftOuthh>
 37c:	68 e7       	ldi	r22, 0x78	; 120
 37e:	80 e0       	ldi	r24, 0x00	; 0
 380:	0e 94 fa 00 	call	0x1f4	; 0x1f4 <_Z8shiftOuthh>
 384:	6c e7       	ldi	r22, 0x7C	; 124
 386:	80 e0       	ldi	r24, 0x00	; 0
 388:	0e 94 fa 00 	call	0x1f4	; 0x1f4 <_Z8shiftOuthh>
 38c:	c8 2f       	mov	r28, r24
 38e:	8f e0       	ldi	r24, 0x0F	; 15
 390:	91 e0       	ldi	r25, 0x01	; 1
 392:	0e 94 32 04 	call	0x864	; 0x864 <_Z13UsartPrintPGMPKc>
 396:	8c 2f       	mov	r24, r28
 398:	0e 94 b7 00 	call	0x16e	; 0x16e <_Z8HexPrinth>
 39c:	8d e2       	ldi	r24, 0x2D	; 45
 39e:	91 e0       	ldi	r25, 0x01	; 1
 3a0:	cf 91       	pop	r28
 3a2:	0c 94 11 04 	jmp	0x822	; 0x822 <_Z10UsartPrintPKc>

000003a6 <_Z4Readv>:
 3a6:	1f 93       	push	r17
 3a8:	cf 93       	push	r28
 3aa:	df 93       	push	r29
 3ac:	80 91 60 01 	lds	r24, 0x0160	; 0x800160 <addr>
 3b0:	90 91 61 01 	lds	r25, 0x0161	; 0x800161 <addr+0x1>
 3b4:	88 0f       	add	r24, r24
 3b6:	99 1f       	adc	r25, r25
 3b8:	0e 94 f1 00 	call	0x1e2	; 0x1e2 <_Z12HexPrintWordj>
 3bc:	8a e3       	ldi	r24, 0x3A	; 58
 3be:	0e 94 0a 04 	call	0x814	; 0x814 <_Z10UsartWritec>
 3c2:	6c e4       	ldi	r22, 0x4C	; 76
 3c4:	82 e0       	ldi	r24, 0x02	; 2
 3c6:	0e 94 fa 00 	call	0x1f4	; 0x1f4 <_Z8shiftOuthh>
 3ca:	c8 e0       	ldi	r28, 0x08	; 8
 3cc:	6c e0       	ldi	r22, 0x0C	; 12
 3ce:	80 91 60 01 	lds	r24, 0x0160	; 0x800160 <addr>
 3d2:	0e 94 fa 00 	call	0x1f4	; 0x1f4 <_Z8shiftOuthh>
 3d6:	6c e1       	ldi	r22, 0x1C	; 28
 3d8:	80 91 61 01 	lds	r24, 0x0161	; 0x800161 <addr+0x1>
 3dc:	0e 94 fa 00 	call	0x1f4	; 0x1f4 <_Z8shiftOuthh>
 3e0:	68 e6       	ldi	r22, 0x68	; 104
 3e2:	80 e0       	ldi	r24, 0x00	; 0
 3e4:	0e 94 fa 00 	call	0x1f4	; 0x1f4 <_Z8shiftOuthh>
 3e8:	6c e6       	ldi	r22, 0x6C	; 108
 3ea:	80 e0       	ldi	r24, 0x00	; 0
 3ec:	0e 94 fa 00 	call	0x1f4	; 0x1f4 <_Z8shiftOuthh>
 3f0:	18 2f       	mov	r17, r24
 3f2:	68 e7       	ldi	r22, 0x78	; 120
 3f4:	80 e0       	ldi	r24, 0x00	; 0
 3f6:	0e 94 fa 00 	call	0x1f4	; 0x1f4 <_Z8shiftOuthh>
 3fa:	6c e7       	ldi	r22, 0x7C	; 124
 3fc:	80 e0       	ldi	r24, 0x00	; 0
 3fe:	0e 94 fa 00 	call	0x1f4	; 0x1f4 <_Z8shiftOuthh>
 402:	d8 2f       	mov	r29, r24
 404:	80 e2       	ldi	r24, 0x20	; 32
 406:	0e 94 0a 04 	call	0x814	; 0x814 <_Z10UsartWritec>
 40a:	81 2f       	mov	r24, r17
 40c:	0e 94 b7 00 	call	0x16e	; 0x16e <_Z8HexPrinth>
 410:	80 e2       	ldi	r24, 0x20	; 32
 412:	0e 94 0a 04 	call	0x814	; 0x814 <_Z10UsartWritec>
 416:	8d 2f       	mov	r24, r29
 418:	0e 94 b7 00 	call	0x16e	; 0x16e <_Z8HexPrinth>
 41c:	80 91 60 01 	lds	r24, 0x0160	; 0x800160 <addr>
 420:	90 91 61 01 	lds	r25, 0x0161	; 0x800161 <addr+0x1>
 424:	01 96       	adiw	r24, 0x01	; 1
 426:	90 93 61 01 	sts	0x0161, r25	; 0x800161 <addr+0x1>
 42a:	80 93 60 01 	sts	0x0160, r24	; 0x800160 <addr>
 42e:	c1 50       	subi	r28, 0x01	; 1
 430:	69 f6       	brne	.-102    	; 0x3cc <_Z4Readv+0x26>
 432:	8d e2       	ldi	r24, 0x2D	; 45
 434:	91 e0       	ldi	r25, 0x01	; 1
 436:	df 91       	pop	r29
 438:	cf 91       	pop	r28
 43a:	1f 91       	pop	r17
 43c:	0c 94 11 04 	jmp	0x822	; 0x822 <_Z10UsartPrintPKc>

00000440 <_Z5Erasev>:
 440:	6c e4       	ldi	r22, 0x4C	; 76
 442:	80 e8       	ldi	r24, 0x80	; 128
 444:	0e 94 fa 00 	call	0x1f4	; 0x1f4 <_Z8shiftOuthh>
 448:	64 e6       	ldi	r22, 0x64	; 100
 44a:	80 e0       	ldi	r24, 0x00	; 0
 44c:	0e 94 fa 00 	call	0x1f4	; 0x1f4 <_Z8shiftOuthh>
 450:	6c e6       	ldi	r22, 0x6C	; 108
 452:	80 e0       	ldi	r24, 0x00	; 0
 454:	0e 94 fa 00 	call	0x1f4	; 0x1f4 <_Z8shiftOuthh>
 458:	6c e4       	ldi	r22, 0x4C	; 76
 45a:	80 e0       	ldi	r24, 0x00	; 0
 45c:	0e 94 fa 00 	call	0x1f4	; 0x1f4 <_Z8shiftOuthh>
 460:	81 ef       	ldi	r24, 0xF1	; 241
 462:	90 e0       	ldi	r25, 0x00	; 0
 464:	0c 94 32 04 	jmp	0x864	; 0x864 <_Z13UsartPrintPGMPKc>

00000468 <_Z7SetWordPh>:
 468:	cf 92       	push	r12
 46a:	df 92       	push	r13
 46c:	ef 92       	push	r14
 46e:	ff 92       	push	r15
 470:	0f 93       	push	r16
 472:	1f 93       	push	r17
 474:	cf 93       	push	r28
 476:	8c 01       	movw	r16, r24
 478:	6c 01       	movw	r12, r24
 47a:	84 e0       	ldi	r24, 0x04	; 4
 47c:	c8 0e       	add	r12, r24
 47e:	d1 1c       	adc	r13, r1
 480:	f1 2c       	mov	r15, r1
 482:	e1 2c       	mov	r14, r1
 484:	f8 01       	movw	r30, r16
 486:	c1 91       	ld	r28, Z+
 488:	8f 01       	movw	r16, r30
 48a:	8c 2f       	mov	r24, r28
 48c:	0e 94 0a 04 	call	0x814	; 0x814 <_Z10UsartWritec>
 490:	c1 34       	cpi	r28, 0x41	; 65
 492:	08 f0       	brcs	.+2      	; 0x496 <_Z7SetWordPh+0x2e>
 494:	c7 50       	subi	r28, 0x07	; 7
 496:	84 e0       	ldi	r24, 0x04	; 4
 498:	ee 0c       	add	r14, r14
 49a:	ff 1c       	adc	r15, r15
 49c:	8a 95       	dec	r24
 49e:	e1 f7       	brne	.-8      	; 0x498 <_Z7SetWordPh+0x30>
 4a0:	cf 70       	andi	r28, 0x0F	; 15
 4a2:	ec 2a       	or	r14, r28
 4a4:	0c 15       	cp	r16, r12
 4a6:	1d 05       	cpc	r17, r13
 4a8:	69 f7       	brne	.-38     	; 0x484 <_Z7SetWordPh+0x1c>
 4aa:	c7 01       	movw	r24, r14
 4ac:	cf 91       	pop	r28
 4ae:	1f 91       	pop	r17
 4b0:	0f 91       	pop	r16
 4b2:	ff 90       	pop	r15
 4b4:	ef 90       	pop	r14
 4b6:	df 90       	pop	r13
 4b8:	cf 90       	pop	r12
 4ba:	08 95       	ret

000004bc <_Z7SetBytePh>:
 4bc:	fc 01       	movw	r30, r24
 4be:	80 81       	ld	r24, Z
 4c0:	81 34       	cpi	r24, 0x41	; 65
 4c2:	08 f0       	brcs	.+2      	; 0x4c6 <_Z7SetBytePh+0xa>
 4c4:	87 50       	subi	r24, 0x07	; 7
 4c6:	82 95       	swap	r24
 4c8:	80 7f       	andi	r24, 0xF0	; 240
 4ca:	91 81       	ldd	r25, Z+1	; 0x01
 4cc:	91 34       	cpi	r25, 0x41	; 65
 4ce:	08 f0       	brcs	.+2      	; 0x4d2 <_Z7SetBytePh+0x16>
 4d0:	97 50       	subi	r25, 0x07	; 7
 4d2:	9f 70       	andi	r25, 0x0F	; 15
 4d4:	89 2b       	or	r24, r25
 4d6:	08 95       	ret

000004d8 <_Z8ReadLinev>:
 4d8:	1f 93       	push	r17
 4da:	cf 93       	push	r28
 4dc:	df 93       	push	r29
 4de:	c0 e3       	ldi	r28, 0x30	; 48
 4e0:	d1 e0       	ldi	r29, 0x01	; 1
 4e2:	1c 2f       	mov	r17, r28
 4e4:	10 5d       	subi	r17, 0xD0	; 208
 4e6:	80 e0       	ldi	r24, 0x00	; 0
 4e8:	0e 94 40 04 	call	0x880	; 0x880 <_Z9UsartReadb>
 4ec:	89 93       	st	Y+, r24
 4ee:	8a 30       	cpi	r24, 0x0A	; 10
 4f0:	11 f0       	breq	.+4      	; 0x4f6 <_Z8ReadLinev+0x1e>
 4f2:	1c 13       	cpse	r17, r28
 4f4:	f8 cf       	rjmp	.-16     	; 0x4e6 <_Z8ReadLinev+0xe>
 4f6:	df 91       	pop	r29
 4f8:	cf 91       	pop	r28
 4fa:	1f 91       	pop	r17
 4fc:	08 95       	ret

000004fe <_Z5Writev>:
 4fe:	ef 92       	push	r14
 500:	ff 92       	push	r15
 502:	0f 93       	push	r16
 504:	1f 93       	push	r17
 506:	cf 93       	push	r28
 508:	df 93       	push	r29
 50a:	8a ed       	ldi	r24, 0xDA	; 218
 50c:	90 e0       	ldi	r25, 0x00	; 0
 50e:	0e 94 32 04 	call	0x864	; 0x864 <_Z13UsartPrintPGMPKc>
 512:	6c e4       	ldi	r22, 0x4C	; 76
 514:	80 e1       	ldi	r24, 0x10	; 16
 516:	0e 94 fa 00 	call	0x1f4	; 0x1f4 <_Z8shiftOuthh>
 51a:	0e 94 6c 02 	call	0x4d8	; 0x4d8 <_Z8ReadLinev>
 51e:	80 91 38 01 	lds	r24, 0x0138	; 0x800138 <__data_end+0x8>
 522:	81 33       	cpi	r24, 0x31	; 49
 524:	f9 f4       	brne	.+62     	; 0x564 <_Z5Writev+0x66>
 526:	6c e1       	ldi	r22, 0x1C	; 28
 528:	80 91 61 01 	lds	r24, 0x0161	; 0x800161 <addr+0x1>
 52c:	0e 94 fa 00 	call	0x1f4	; 0x1f4 <_Z8shiftOuthh>
 530:	64 e6       	ldi	r22, 0x64	; 100
 532:	80 e0       	ldi	r24, 0x00	; 0
 534:	0e 94 fa 00 	call	0x1f4	; 0x1f4 <_Z8shiftOuthh>
 538:	6c e6       	ldi	r22, 0x6C	; 108
 53a:	80 e0       	ldi	r24, 0x00	; 0
 53c:	0e 94 fa 00 	call	0x1f4	; 0x1f4 <_Z8shiftOuthh>
 540:	80 91 38 01 	lds	r24, 0x0138	; 0x800138 <__data_end+0x8>
 544:	81 33       	cpi	r24, 0x31	; 49
 546:	49 f7       	brne	.-46     	; 0x51a <_Z5Writev+0x1c>
 548:	6c e4       	ldi	r22, 0x4C	; 76
 54a:	80 e0       	ldi	r24, 0x00	; 0
 54c:	0e 94 fa 00 	call	0x1f4	; 0x1f4 <_Z8shiftOuthh>
 550:	82 ed       	ldi	r24, 0xD2	; 210
 552:	90 e0       	ldi	r25, 0x00	; 0
 554:	df 91       	pop	r29
 556:	cf 91       	pop	r28
 558:	1f 91       	pop	r17
 55a:	0f 91       	pop	r16
 55c:	ff 90       	pop	r15
 55e:	ef 90       	pop	r14
 560:	0c 94 32 04 	jmp	0x864	; 0x864 <_Z13UsartPrintPGMPKc>
 564:	80 33       	cpi	r24, 0x30	; 48
 566:	c9 f6       	brne	.-78     	; 0x51a <_Z5Writev+0x1c>
 568:	83 e3       	ldi	r24, 0x33	; 51
 56a:	91 e0       	ldi	r25, 0x01	; 1
 56c:	0e 94 34 02 	call	0x468	; 0x468 <_Z7SetWordPh>
 570:	96 95       	lsr	r25
 572:	87 95       	ror	r24
 574:	90 93 61 01 	sts	0x0161, r25	; 0x800161 <addr+0x1>
 578:	80 93 60 01 	sts	0x0160, r24	; 0x800160 <addr>
 57c:	8a e2       	ldi	r24, 0x2A	; 42
 57e:	91 e0       	ldi	r25, 0x01	; 1
 580:	0e 94 11 04 	call	0x822	; 0x822 <_Z10UsartPrintPKc>
 584:	81 e3       	ldi	r24, 0x31	; 49
 586:	91 e0       	ldi	r25, 0x01	; 1
 588:	0e 94 5e 02 	call	0x4bc	; 0x4bc <_Z7SetBytePh>
 58c:	e8 2e       	mov	r14, r24
 58e:	e6 94       	lsr	r14
 590:	80 e3       	ldi	r24, 0x30	; 48
 592:	91 e0       	ldi	r25, 0x01	; 1
 594:	c0 e0       	ldi	r28, 0x00	; 0
 596:	8c 01       	movw	r16, r24
 598:	0c 5f       	subi	r16, 0xFC	; 252
 59a:	1f 4f       	sbci	r17, 0xFF	; 255
 59c:	ce 15       	cp	r28, r14
 59e:	39 f1       	breq	.+78     	; 0x5ee <_Z5Writev+0xf0>
 5a0:	09 96       	adiw	r24, 0x09	; 9
 5a2:	0e 94 34 02 	call	0x468	; 0x468 <_Z7SetWordPh>
 5a6:	d8 2f       	mov	r29, r24
 5a8:	f9 2e       	mov	r15, r25
 5aa:	6c e0       	ldi	r22, 0x0C	; 12
 5ac:	80 91 60 01 	lds	r24, 0x0160	; 0x800160 <addr>
 5b0:	0e 94 fa 00 	call	0x1f4	; 0x1f4 <_Z8shiftOuthh>
 5b4:	6c e2       	ldi	r22, 0x2C	; 44
 5b6:	8f 2d       	mov	r24, r15
 5b8:	0e 94 fa 00 	call	0x1f4	; 0x1f4 <_Z8shiftOuthh>
 5bc:	6c e3       	ldi	r22, 0x3C	; 60
 5be:	8d 2f       	mov	r24, r29
 5c0:	0e 94 fa 00 	call	0x1f4	; 0x1f4 <_Z8shiftOuthh>
 5c4:	6d e7       	ldi	r22, 0x7D	; 125
 5c6:	80 e0       	ldi	r24, 0x00	; 0
 5c8:	0e 94 fa 00 	call	0x1f4	; 0x1f4 <_Z8shiftOuthh>
 5cc:	6c e7       	ldi	r22, 0x7C	; 124
 5ce:	80 e0       	ldi	r24, 0x00	; 0
 5d0:	0e 94 fa 00 	call	0x1f4	; 0x1f4 <_Z8shiftOuthh>
 5d4:	20 91 60 01 	lds	r18, 0x0160	; 0x800160 <addr>
 5d8:	30 91 61 01 	lds	r19, 0x0161	; 0x800161 <addr+0x1>
 5dc:	2f 5f       	subi	r18, 0xFF	; 255
 5de:	3f 4f       	sbci	r19, 0xFF	; 255
 5e0:	30 93 61 01 	sts	0x0161, r19	; 0x800161 <addr+0x1>
 5e4:	20 93 60 01 	sts	0x0160, r18	; 0x800160 <addr>
 5e8:	cf 5f       	subi	r28, 0xFF	; 255
 5ea:	c8 01       	movw	r24, r16
 5ec:	d4 cf       	rjmp	.-88     	; 0x596 <_Z5Writev+0x98>
 5ee:	8d e2       	ldi	r24, 0x2D	; 45
 5f0:	91 e0       	ldi	r25, 0x01	; 1
 5f2:	0e 94 11 04 	call	0x822	; 0x822 <_Z10UsartPrintPKc>
 5f6:	80 91 60 01 	lds	r24, 0x0160	; 0x800160 <addr>
 5fa:	90 91 61 01 	lds	r25, 0x0161	; 0x800161 <addr+0x1>
 5fe:	8f 70       	andi	r24, 0x0F	; 15
 600:	99 27       	eor	r25, r25
 602:	89 2b       	or	r24, r25
 604:	09 f4       	brne	.+2      	; 0x608 <_Z5Writev+0x10a>
 606:	8f cf       	rjmp	.-226    	; 0x526 <_Z5Writev+0x28>
 608:	9b cf       	rjmp	.-202    	; 0x540 <_Z5Writev+0x42>

0000060a <_Z4Fusev>:
 60a:	0f 93       	push	r16
 60c:	1f 93       	push	r17
 60e:	cf 93       	push	r28
 610:	df 93       	push	r29
 612:	8c eb       	ldi	r24, 0xBC	; 188
 614:	90 e0       	ldi	r25, 0x00	; 0
 616:	0e 94 32 04 	call	0x864	; 0x864 <_Z13UsartPrintPGMPKc>
 61a:	80 e0       	ldi	r24, 0x00	; 0
 61c:	0e 94 40 04 	call	0x880	; 0x880 <_Z9UsartReadb>
 620:	88 36       	cpi	r24, 0x68	; 104
 622:	81 f1       	breq	.+96     	; 0x684 <_Z4Fusev+0x7a>
 624:	8c 36       	cpi	r24, 0x6C	; 108
 626:	49 f1       	breq	.+82     	; 0x67a <_Z4Fusev+0x70>
 628:	85 36       	cpi	r24, 0x65	; 101
 62a:	99 f1       	breq	.+102    	; 0x692 <_Z4Fusev+0x88>
 62c:	0c e6       	ldi	r16, 0x6C	; 108
 62e:	14 e6       	ldi	r17, 0x64	; 100
 630:	80 e0       	ldi	r24, 0x00	; 0
 632:	0e 94 40 04 	call	0x880	; 0x880 <_Z9UsartReadb>
 636:	d8 2f       	mov	r29, r24
 638:	0e 94 0a 04 	call	0x814	; 0x814 <_Z10UsartWritec>
 63c:	d1 34       	cpi	r29, 0x41	; 65
 63e:	08 f0       	brcs	.+2      	; 0x642 <_Z4Fusev+0x38>
 640:	d7 50       	subi	r29, 0x07	; 7
 642:	80 e0       	ldi	r24, 0x00	; 0
 644:	0e 94 40 04 	call	0x880	; 0x880 <_Z9UsartReadb>
 648:	c8 2f       	mov	r28, r24
 64a:	0e 94 0a 04 	call	0x814	; 0x814 <_Z10UsartWritec>
 64e:	8d e2       	ldi	r24, 0x2D	; 45
 650:	91 e0       	ldi	r25, 0x01	; 1
 652:	0e 94 11 04 	call	0x822	; 0x822 <_Z10UsartPrintPKc>
 656:	c1 34       	cpi	r28, 0x41	; 65
 658:	08 f0       	brcs	.+2      	; 0x65c <_Z4Fusev+0x52>
 65a:	c7 50       	subi	r28, 0x07	; 7
 65c:	80 e1       	ldi	r24, 0x10	; 16
 65e:	d8 9f       	mul	r29, r24
 660:	b0 01       	movw	r22, r0
 662:	11 24       	eor	r1, r1
 664:	cf 70       	andi	r28, 0x0F	; 15
 666:	6c 2b       	or	r22, r28
 668:	c8 01       	movw	r24, r16
 66a:	0e 94 27 01 	call	0x24e	; 0x24e <_Z9writeFusejh>
 66e:	df 91       	pop	r29
 670:	cf 91       	pop	r28
 672:	1f 91       	pop	r17
 674:	0f 91       	pop	r16
 676:	0c 94 3f 01 	jmp	0x27e	; 0x27e <_Z10PrintFusesv>
 67a:	85 eb       	ldi	r24, 0xB5	; 181
 67c:	90 e0       	ldi	r25, 0x00	; 0
 67e:	0e 94 32 04 	call	0x864	; 0x864 <_Z13UsartPrintPGMPKc>
 682:	d4 cf       	rjmp	.-88     	; 0x62c <_Z4Fusev+0x22>
 684:	8e ea       	ldi	r24, 0xAE	; 174
 686:	90 e0       	ldi	r25, 0x00	; 0
 688:	0e 94 32 04 	call	0x864	; 0x864 <_Z13UsartPrintPGMPKc>
 68c:	0c e7       	ldi	r16, 0x7C	; 124
 68e:	14 e7       	ldi	r17, 0x74	; 116
 690:	cf cf       	rjmp	.-98     	; 0x630 <_Z4Fusev+0x26>
 692:	87 ea       	ldi	r24, 0xA7	; 167
 694:	90 e0       	ldi	r25, 0x00	; 0
 696:	0e 94 32 04 	call	0x864	; 0x864 <_Z13UsartPrintPGMPKc>
 69a:	0e e6       	ldi	r16, 0x6E	; 110
 69c:	16 e6       	ldi	r17, 0x66	; 102
 69e:	c8 cf       	rjmp	.-112    	; 0x630 <_Z4Fusev+0x26>

000006a0 <_Z5Powerv>:
 6a0:	18 b8       	out	0x08, r1	; 8
 6a2:	17 b8       	out	0x07, r1	; 7
 6a4:	14 b8       	out	0x04, r1	; 4
 6a6:	15 b8       	out	0x05, r1	; 5
 6a8:	10 92 61 01 	sts	0x0161, r1	; 0x800161 <addr+0x1>
 6ac:	10 92 60 01 	sts	0x0160, r1	; 0x800160 <addr>
 6b0:	85 e9       	ldi	r24, 0x95	; 149
 6b2:	90 e0       	ldi	r25, 0x00	; 0
 6b4:	0e 94 32 04 	call	0x864	; 0x864 <_Z13UsartPrintPGMPKc>
 6b8:	80 e0       	ldi	r24, 0x00	; 0
 6ba:	0e 94 40 04 	call	0x880	; 0x880 <_Z9UsartReadb>
 6be:	83 37       	cpi	r24, 0x73	; 115
 6c0:	b9 f7       	brne	.-18     	; 0x6b0 <_Z5Powerv+0x10>
 6c2:	8f e0       	ldi	r24, 0x0F	; 15
 6c4:	87 b9       	out	0x07, r24	; 7
 6c6:	80 e3       	ldi	r24, 0x30	; 48
 6c8:	85 b9       	out	0x05, r24	; 5
 6ca:	88 e3       	ldi	r24, 0x38	; 56
 6cc:	84 b9       	out	0x04, r24	; 4
 6ce:	6a e0       	ldi	r22, 0x0A	; 10
 6d0:	70 e0       	ldi	r23, 0x00	; 0
 6d2:	80 e0       	ldi	r24, 0x00	; 0
 6d4:	90 e0       	ldi	r25, 0x00	; 0
 6d6:	0e 94 79 03 	call	0x6f2	; 0x6f2 <_Z5delaym>
 6da:	8b e0       	ldi	r24, 0x0B	; 11
 6dc:	87 b9       	out	0x07, r24	; 7
 6de:	0e 94 81 01 	call	0x302	; 0x302 <_Z14PrintSignaturev>
 6e2:	0e 94 b5 01 	call	0x36a	; 0x36a <_Z16PrintCalibrationv>
 6e6:	0e 94 3f 01 	call	0x27e	; 0x27e <_Z10PrintFusesv>
 6ea:	85 e7       	ldi	r24, 0x75	; 117
 6ec:	90 e0       	ldi	r25, 0x00	; 0
 6ee:	0c 94 32 04 	jmp	0x864	; 0x864 <_Z13UsartPrintPGMPKc>

000006f2 <_Z5delaym>:
 6f2:	46 2f       	mov	r20, r22
 6f4:	57 2f       	mov	r21, r23
 6f6:	bc 01       	movw	r22, r24
 6f8:	40 93 65 01 	sts	0x0165, r20	; 0x800165 <msd>
 6fc:	50 93 66 01 	sts	0x0166, r21	; 0x800166 <msd+0x1>
 700:	60 93 67 01 	sts	0x0167, r22	; 0x800167 <msd+0x2>
 704:	70 93 68 01 	sts	0x0168, r23	; 0x800168 <msd+0x3>
 708:	81 e0       	ldi	r24, 0x01	; 1
 70a:	80 93 64 01 	sts	0x0164, r24	; 0x800164 <fld>
 70e:	e0 91 62 01 	lds	r30, 0x0162	; 0x800162 <delayfunc>
 712:	f0 91 63 01 	lds	r31, 0x0163	; 0x800163 <delayfunc+0x1>
 716:	80 91 64 01 	lds	r24, 0x0164	; 0x800164 <fld>
 71a:	88 23       	and	r24, r24
 71c:	21 f0       	breq	.+8      	; 0x726 <_Z5delaym+0x34>
 71e:	30 97       	sbiw	r30, 0x00	; 0
 720:	d1 f3       	breq	.-12     	; 0x716 <_Z5delaym+0x24>
 722:	09 95       	icall
 724:	f4 cf       	rjmp	.-24     	; 0x70e <_Z5delaym+0x1c>
 726:	08 95       	ret

00000728 <_Z9DelayInitPFvvE>:
 728:	90 93 63 01 	sts	0x0163, r25	; 0x800163 <delayfunc+0x1>
 72c:	80 93 62 01 	sts	0x0162, r24	; 0x800162 <delayfunc>
 730:	89 ef       	ldi	r24, 0xF9	; 249
 732:	87 bd       	out	0x27, r24	; 39
 734:	82 e0       	ldi	r24, 0x02	; 2
 736:	84 bd       	out	0x24, r24	; 36
 738:	93 e0       	ldi	r25, 0x03	; 3
 73a:	95 bd       	out	0x25, r25	; 37
 73c:	80 93 6e 00 	sts	0x006E, r24	; 0x80006e <__TEXT_REGION_LENGTH__+0x7e006e>
 740:	08 95       	ret

00000742 <__vector_14>:
 742:	1f 92       	push	r1
 744:	1f b6       	in	r1, 0x3f	; 63
 746:	1f 92       	push	r1
 748:	11 24       	eor	r1, r1
 74a:	8f 93       	push	r24
 74c:	9f 93       	push	r25
 74e:	af 93       	push	r26
 750:	bf 93       	push	r27
 752:	80 91 69 01 	lds	r24, 0x0169	; 0x800169 <ms>
 756:	90 91 6a 01 	lds	r25, 0x016A	; 0x80016a <ms+0x1>
 75a:	01 96       	adiw	r24, 0x01	; 1
 75c:	90 93 6a 01 	sts	0x016A, r25	; 0x80016a <ms+0x1>
 760:	80 93 69 01 	sts	0x0169, r24	; 0x800169 <ms>
 764:	80 91 64 01 	lds	r24, 0x0164	; 0x800164 <fld>
 768:	88 23       	and	r24, r24
 76a:	09 f1       	breq	.+66     	; 0x7ae <__vector_14+0x6c>
 76c:	80 91 65 01 	lds	r24, 0x0165	; 0x800165 <msd>
 770:	90 91 66 01 	lds	r25, 0x0166	; 0x800166 <msd+0x1>
 774:	a0 91 67 01 	lds	r26, 0x0167	; 0x800167 <msd+0x2>
 778:	b0 91 68 01 	lds	r27, 0x0168	; 0x800168 <msd+0x3>
 77c:	01 97       	sbiw	r24, 0x01	; 1
 77e:	a1 09       	sbc	r26, r1
 780:	b1 09       	sbc	r27, r1
 782:	80 93 65 01 	sts	0x0165, r24	; 0x800165 <msd>
 786:	90 93 66 01 	sts	0x0166, r25	; 0x800166 <msd+0x1>
 78a:	a0 93 67 01 	sts	0x0167, r26	; 0x800167 <msd+0x2>
 78e:	b0 93 68 01 	sts	0x0168, r27	; 0x800168 <msd+0x3>
 792:	80 91 65 01 	lds	r24, 0x0165	; 0x800165 <msd>
 796:	90 91 66 01 	lds	r25, 0x0166	; 0x800166 <msd+0x1>
 79a:	a0 91 67 01 	lds	r26, 0x0167	; 0x800167 <msd+0x2>
 79e:	b0 91 68 01 	lds	r27, 0x0168	; 0x800168 <msd+0x3>
 7a2:	00 97       	sbiw	r24, 0x00	; 0
 7a4:	a1 05       	cpc	r26, r1
 7a6:	b1 05       	cpc	r27, r1
 7a8:	11 f4       	brne	.+4      	; 0x7ae <__vector_14+0x6c>
 7aa:	10 92 64 01 	sts	0x0164, r1	; 0x800164 <fld>
 7ae:	bf 91       	pop	r27
 7b0:	af 91       	pop	r26
 7b2:	9f 91       	pop	r25
 7b4:	8f 91       	pop	r24
 7b6:	1f 90       	pop	r1
 7b8:	1f be       	out	0x3f, r1	; 63
 7ba:	1f 90       	pop	r1
 7bc:	18 95       	reti

000007be <_Z9UsartInitm>:
 7be:	cf 93       	push	r28
 7c0:	df 93       	push	r29
 7c2:	00 d0       	rcall	.+0      	; 0x7c4 <_Z9UsartInitm+0x6>
 7c4:	00 d0       	rcall	.+0      	; 0x7c6 <_Z9UsartInitm+0x8>
 7c6:	cd b7       	in	r28, 0x3d	; 61
 7c8:	de b7       	in	r29, 0x3e	; 62
 7ca:	69 83       	std	Y+1, r22	; 0x01
 7cc:	7a 83       	std	Y+2, r23	; 0x02
 7ce:	8b 83       	std	Y+3, r24	; 0x03
 7d0:	9c 83       	std	Y+4, r25	; 0x04
 7d2:	60 e8       	ldi	r22, 0x80	; 128
 7d4:	74 e8       	ldi	r23, 0x84	; 132
 7d6:	8e e1       	ldi	r24, 0x1E	; 30
 7d8:	90 e0       	ldi	r25, 0x00	; 0
 7da:	29 81       	ldd	r18, Y+1	; 0x01
 7dc:	3a 81       	ldd	r19, Y+2	; 0x02
 7de:	4b 81       	ldd	r20, Y+3	; 0x03
 7e0:	5c 81       	ldd	r21, Y+4	; 0x04
 7e2:	0e 94 bc 04 	call	0x978	; 0x978 <__udivmodsi4>
 7e6:	21 50       	subi	r18, 0x01	; 1
 7e8:	31 09       	sbc	r19, r1
 7ea:	41 09       	sbc	r20, r1
 7ec:	51 09       	sbc	r21, r1
 7ee:	56 95       	lsr	r21
 7f0:	47 95       	ror	r20
 7f2:	37 95       	ror	r19
 7f4:	27 95       	ror	r18
 7f6:	20 93 c4 00 	sts	0x00C4, r18	; 0x8000c4 <__TEXT_REGION_LENGTH__+0x7e00c4>
 7fa:	86 e0       	ldi	r24, 0x06	; 6
 7fc:	80 93 c2 00 	sts	0x00C2, r24	; 0x8000c2 <__TEXT_REGION_LENGTH__+0x7e00c2>
 800:	88 e9       	ldi	r24, 0x98	; 152
 802:	80 93 c1 00 	sts	0x00C1, r24	; 0x8000c1 <__TEXT_REGION_LENGTH__+0x7e00c1>
 806:	0f 90       	pop	r0
 808:	0f 90       	pop	r0
 80a:	0f 90       	pop	r0
 80c:	0f 90       	pop	r0
 80e:	df 91       	pop	r29
 810:	cf 91       	pop	r28
 812:	08 95       	ret

00000814 <_Z10UsartWritec>:
 814:	90 91 c0 00 	lds	r25, 0x00C0	; 0x8000c0 <__TEXT_REGION_LENGTH__+0x7e00c0>
 818:	95 ff       	sbrs	r25, 5
 81a:	fc cf       	rjmp	.-8      	; 0x814 <_Z10UsartWritec>
 81c:	80 93 c6 00 	sts	0x00C6, r24	; 0x8000c6 <__TEXT_REGION_LENGTH__+0x7e00c6>
 820:	08 95       	ret

00000822 <_Z10UsartPrintPKc>:
 822:	cf 93       	push	r28
 824:	df 93       	push	r29
 826:	ec 01       	movw	r28, r24
 828:	89 91       	ld	r24, Y+
 82a:	88 23       	and	r24, r24
 82c:	21 f0       	breq	.+8      	; 0x836 <_Z10UsartPrintPKc+0x14>
 82e:	0e 94 0a 04 	call	0x814	; 0x814 <_Z10UsartWritec>
 832:	ce 01       	movw	r24, r28
 834:	f8 cf       	rjmp	.-16     	; 0x826 <_Z10UsartPrintPKc+0x4>
 836:	df 91       	pop	r29
 838:	cf 91       	pop	r28
 83a:	08 95       	ret

0000083c <_Z10UsartPrintPKcj>:
 83c:	0f 93       	push	r16
 83e:	1f 93       	push	r17
 840:	cf 93       	push	r28
 842:	df 93       	push	r29
 844:	ec 01       	movw	r28, r24
 846:	8c 01       	movw	r16, r24
 848:	06 0f       	add	r16, r22
 84a:	17 1f       	adc	r17, r23
 84c:	c0 17       	cp	r28, r16
 84e:	d1 07       	cpc	r29, r17
 850:	21 f0       	breq	.+8      	; 0x85a <_Z10UsartPrintPKcj+0x1e>
 852:	89 91       	ld	r24, Y+
 854:	0e 94 0a 04 	call	0x814	; 0x814 <_Z10UsartWritec>
 858:	f9 cf       	rjmp	.-14     	; 0x84c <_Z10UsartPrintPKcj+0x10>
 85a:	df 91       	pop	r29
 85c:	cf 91       	pop	r28
 85e:	1f 91       	pop	r17
 860:	0f 91       	pop	r16
 862:	08 95       	ret

00000864 <_Z13UsartPrintPGMPKc>:
 864:	cf 93       	push	r28
 866:	df 93       	push	r29
 868:	ec 01       	movw	r28, r24
 86a:	fe 01       	movw	r30, r28
 86c:	84 91       	lpm	r24, Z
 86e:	21 96       	adiw	r28, 0x01	; 1
 870:	88 23       	and	r24, r24
 872:	19 f0       	breq	.+6      	; 0x87a <_Z13UsartPrintPGMPKc+0x16>
 874:	0e 94 0a 04 	call	0x814	; 0x814 <_Z10UsartWritec>
 878:	f8 cf       	rjmp	.-16     	; 0x86a <_Z13UsartPrintPGMPKc+0x6>
 87a:	df 91       	pop	r29
 87c:	cf 91       	pop	r28
 87e:	08 95       	ret

00000880 <_Z9UsartReadb>:
 880:	88 23       	and	r24, r24
 882:	39 f0       	breq	.+14     	; 0x892 <_Z9UsartReadb+0x12>
 884:	80 91 6c 01 	lds	r24, 0x016C	; 0x80016c <RXin>
 888:	90 91 6b 01 	lds	r25, 0x016B	; 0x80016b <RXout>
 88c:	89 1b       	sub	r24, r25
 88e:	8f 73       	andi	r24, 0x3F	; 63
 890:	08 95       	ret
 892:	90 91 6c 01 	lds	r25, 0x016C	; 0x80016c <RXin>
 896:	80 91 6b 01 	lds	r24, 0x016B	; 0x80016b <RXout>
 89a:	98 17       	cp	r25, r24
 89c:	d1 f3       	breq	.-12     	; 0x892 <_Z9UsartReadb+0x12>
 89e:	e0 91 6b 01 	lds	r30, 0x016B	; 0x80016b <RXout>
 8a2:	f0 e0       	ldi	r31, 0x00	; 0
 8a4:	e3 59       	subi	r30, 0x93	; 147
 8a6:	fe 4f       	sbci	r31, 0xFE	; 254
 8a8:	80 81       	ld	r24, Z
 8aa:	90 91 6b 01 	lds	r25, 0x016B	; 0x80016b <RXout>
 8ae:	9f 5f       	subi	r25, 0xFF	; 255
 8b0:	9f 73       	andi	r25, 0x3F	; 63
 8b2:	90 93 6b 01 	sts	0x016B, r25	; 0x80016b <RXout>
 8b6:	08 95       	ret

000008b8 <__vector_18>:
 8b8:	8f 93       	push	r24
 8ba:	8f b7       	in	r24, 0x3f	; 63
 8bc:	8f 93       	push	r24
 8be:	ef 93       	push	r30
 8c0:	ff 93       	push	r31
 8c2:	80 91 c6 00 	lds	r24, 0x00C6	; 0x8000c6 <__TEXT_REGION_LENGTH__+0x7e00c6>
 8c6:	e0 91 6c 01 	lds	r30, 0x016C	; 0x80016c <RXin>
 8ca:	f0 e0       	ldi	r31, 0x00	; 0
 8cc:	e3 59       	subi	r30, 0x93	; 147
 8ce:	fe 4f       	sbci	r31, 0xFE	; 254
 8d0:	80 83       	st	Z, r24
 8d2:	80 91 6c 01 	lds	r24, 0x016C	; 0x80016c <RXin>
 8d6:	8f 5f       	subi	r24, 0xFF	; 255
 8d8:	8f 73       	andi	r24, 0x3F	; 63
 8da:	80 93 6c 01 	sts	0x016C, r24	; 0x80016c <RXin>
 8de:	ff 91       	pop	r31
 8e0:	ef 91       	pop	r30
 8e2:	8f 91       	pop	r24
 8e4:	8f bf       	out	0x3f, r24	; 63
 8e6:	8f 91       	pop	r24
 8e8:	18 95       	reti

000008ea <main>:
 8ea:	90 e0       	ldi	r25, 0x00	; 0
 8ec:	80 e0       	ldi	r24, 0x00	; 0
 8ee:	0e 94 94 03 	call	0x728	; 0x728 <_Z9DelayInitPFvvE>
 8f2:	60 e0       	ldi	r22, 0x00	; 0
 8f4:	72 ec       	ldi	r23, 0xC2	; 194
 8f6:	81 e0       	ldi	r24, 0x01	; 1
 8f8:	90 e0       	ldi	r25, 0x00	; 0
 8fa:	0e 94 df 03 	call	0x7be	; 0x7be <_Z9UsartInitm>
 8fe:	10 92 b0 00 	sts	0x00B0, r1	; 0x8000b0 <__TEXT_REGION_LENGTH__+0x7e00b0>
 902:	10 92 b1 00 	sts	0x00B1, r1	; 0x8000b1 <__TEXT_REGION_LENGTH__+0x7e00b1>
 906:	10 92 70 00 	sts	0x0070, r1	; 0x800070 <__TEXT_REGION_LENGTH__+0x7e0070>
 90a:	83 e0       	ldi	r24, 0x03	; 3
 90c:	80 93 b3 00 	sts	0x00B3, r24	; 0x8000b3 <__TEXT_REGION_LENGTH__+0x7e00b3>
 910:	82 e4       	ldi	r24, 0x42	; 66
 912:	80 93 b0 00 	sts	0x00B0, r24	; 0x8000b0 <__TEXT_REGION_LENGTH__+0x7e00b0>
 916:	81 e0       	ldi	r24, 0x01	; 1
 918:	80 93 b1 00 	sts	0x00B1, r24	; 0x8000b1 <__TEXT_REGION_LENGTH__+0x7e00b1>
 91c:	78 94       	sei
 91e:	0e 94 50 03 	call	0x6a0	; 0x6a0 <_Z5Powerv>
 922:	80 e0       	ldi	r24, 0x00	; 0
 924:	0e 94 40 04 	call	0x880	; 0x880 <_Z9UsartReadb>
 928:	80 37       	cpi	r24, 0x70	; 112
 92a:	d9 f0       	breq	.+54     	; 0x962 <__stack+0x63>
 92c:	84 f4       	brge	.+32     	; 0x94e <__stack+0x4f>
 92e:	85 36       	cpi	r24, 0x65	; 101
 930:	a9 f0       	breq	.+42     	; 0x95c <__stack+0x5d>
 932:	86 36       	cpi	r24, 0x66	; 102
 934:	c9 f0       	breq	.+50     	; 0x968 <__stack+0x69>
 936:	84 36       	cpi	r24, 0x64	; 100
 938:	a1 f7       	brne	.-24     	; 0x922 <__stack+0x23>
 93a:	10 92 61 01 	sts	0x0161, r1	; 0x800161 <addr+0x1>
 93e:	10 92 60 01 	sts	0x0160, r1	; 0x800160 <addr>
 942:	c0 e4       	ldi	r28, 0x40	; 64
 944:	0e 94 d3 01 	call	0x3a6	; 0x3a6 <_Z4Readv>
 948:	c1 50       	subi	r28, 0x01	; 1
 94a:	e1 f7       	brne	.-8      	; 0x944 <__stack+0x45>
 94c:	ea cf       	rjmp	.-44     	; 0x922 <__stack+0x23>
 94e:	81 37       	cpi	r24, 0x71	; 113
 950:	71 f0       	breq	.+28     	; 0x96e <__stack+0x6f>
 952:	82 37       	cpi	r24, 0x72	; 114
 954:	31 f7       	brne	.-52     	; 0x922 <__stack+0x23>
 956:	0e 94 d3 01 	call	0x3a6	; 0x3a6 <_Z4Readv>
 95a:	e3 cf       	rjmp	.-58     	; 0x922 <__stack+0x23>
 95c:	0e 94 20 02 	call	0x440	; 0x440 <_Z5Erasev>
 960:	e0 cf       	rjmp	.-64     	; 0x922 <__stack+0x23>
 962:	0e 94 7f 02 	call	0x4fe	; 0x4fe <_Z5Writev>
 966:	dd cf       	rjmp	.-70     	; 0x922 <__stack+0x23>
 968:	0e 94 05 03 	call	0x60a	; 0x60a <_Z4Fusev>
 96c:	da cf       	rjmp	.-76     	; 0x922 <__stack+0x23>
 96e:	88 e6       	ldi	r24, 0x68	; 104
 970:	90 e0       	ldi	r25, 0x00	; 0
 972:	0e 94 32 04 	call	0x864	; 0x864 <_Z13UsartPrintPGMPKc>
 976:	d3 cf       	rjmp	.-90     	; 0x91e <__stack+0x1f>

00000978 <__udivmodsi4>:
 978:	a1 e2       	ldi	r26, 0x21	; 33
 97a:	1a 2e       	mov	r1, r26
 97c:	aa 1b       	sub	r26, r26
 97e:	bb 1b       	sub	r27, r27
 980:	fd 01       	movw	r30, r26
 982:	0d c0       	rjmp	.+26     	; 0x99e <__udivmodsi4_ep>

00000984 <__udivmodsi4_loop>:
 984:	aa 1f       	adc	r26, r26
 986:	bb 1f       	adc	r27, r27
 988:	ee 1f       	adc	r30, r30
 98a:	ff 1f       	adc	r31, r31
 98c:	a2 17       	cp	r26, r18
 98e:	b3 07       	cpc	r27, r19
 990:	e4 07       	cpc	r30, r20
 992:	f5 07       	cpc	r31, r21
 994:	20 f0       	brcs	.+8      	; 0x99e <__udivmodsi4_ep>
 996:	a2 1b       	sub	r26, r18
 998:	b3 0b       	sbc	r27, r19
 99a:	e4 0b       	sbc	r30, r20
 99c:	f5 0b       	sbc	r31, r21

0000099e <__udivmodsi4_ep>:
 99e:	66 1f       	adc	r22, r22
 9a0:	77 1f       	adc	r23, r23
 9a2:	88 1f       	adc	r24, r24
 9a4:	99 1f       	adc	r25, r25
 9a6:	1a 94       	dec	r1
 9a8:	69 f7       	brne	.-38     	; 0x984 <__udivmodsi4_loop>
 9aa:	60 95       	com	r22
 9ac:	70 95       	com	r23
 9ae:	80 95       	com	r24
 9b0:	90 95       	com	r25
 9b2:	9b 01       	movw	r18, r22
 9b4:	ac 01       	movw	r20, r24
 9b6:	bd 01       	movw	r22, r26
 9b8:	cf 01       	movw	r24, r30
 9ba:	08 95       	ret

000009bc <_exit>:
 9bc:	f8 94       	cli

000009be <__stop_program>:
 9be:	ff cf       	rjmp	.-2      	; 0x9be <__stop_program>
